target datalayout = "e-m:e-p270:32:32-p271:32:32-p272:64:64-i64:64-i128:128-f80:128-n8:16:32:64-S128"
target triple = "x86_64-pc-linux-gnu"

%struct.ForEachState = type { ptr, i32 }
%struct.Node = type { i32 }
%struct.List = type { i32, i32, i32, ptr, [0 x %union.ListCell] }
%union.ListCell = type { ptr }
%struct.RelOptInfo = type { i32, i32, ptr, double, i8, i8, i8, ptr, ptr, ptr, ptr, ptr, ptr, ptr, ptr, ptr, ptr, i32, i32, i32, i16, i16, ptr, ptr, ptr, ptr, ptr, ptr, ptr, ptr, i32, double, double, ptr, ptr, ptr, i32, i32, i32, i32, i8, ptr, ptr, ptr, ptr, ptr, %struct.QualCost, i32, ptr, i8, i8, ptr, ptr, ptr, ptr, i32, ptr, i8, ptr, ptr, ptr, ptr, ptr, ptr }
%struct.QualCost = type { double, double }
%struct.Var = type { %struct.Expr, i32, i16, i32, i32, i32, ptr, i32, i32, i32, i16, i32 }
%struct.Expr = type { i32 }
%struct.RestrictInfo = type { i32, ptr, i8, i8, i8, i8, i8, i8, i32, i32, i32, ptr, ptr, ptr, ptr, ptr, ptr, ptr, i32, ptr, %struct.QualCost, double, double, ptr, ptr, ptr, ptr, ptr, ptr, i8, i32, double, double, double, double, i32, i32 }
%struct.NullTest = type { %struct.Expr, ptr, i32, i8, i32 }
%struct.BoolExpr = type { %struct.Expr, i32, ptr, i32 }

; Function Attrs: nounwind uwtable
define internal zeroext i1 @expr_is_nonnullable(ptr noundef %0, ptr noundef %1) #0 {
  %3 = alloca i1, align 1
  %4 = alloca ptr, align 8
  %5 = alloca ptr, align 8
  %6 = alloca ptr, align 8
  %7 = alloca ptr, align 8
  %8 = alloca i32, align 4
  store ptr %0, ptr %4, align 8
  store ptr %1, ptr %5, align 8
  call void @llvm.lifetime.start.p0(i64 8, ptr %6) #6
  call void @llvm.lifetime.start.p0(i64 8, ptr %7) #6
  %9 = load ptr, ptr %5, align 8
  %10 = getelementptr inbounds nuw %struct.Node, ptr %9, i32 0, i32 0
  %11 = load i32, ptr %10, align 4
  %12 = icmp eq i32 %11, 6
  br i1 %12, label %14, label %13

13:                                               ; preds = %2
  store i1 false, ptr %3, align 1
  store i32 1, ptr %8, align 4
  br label %50

14:                                               ; preds = %2
  %15 = load ptr, ptr %5, align 8
  store ptr %15, ptr %7, align 8
  %16 = load ptr, ptr %7, align 8
  %17 = getelementptr inbounds nuw %struct.Var, ptr %16, i32 0, i32 6
  %18 = load ptr, ptr %17, align 8
  %19 = icmp eq ptr %18, null
  br i1 %19, label %21, label %20

20:                                               ; preds = %14
  store i1 false, ptr %3, align 1
  store i32 1, ptr %8, align 4
  br label %50

21:                                               ; preds = %14
  %22 = load ptr, ptr %7, align 8
  %23 = getelementptr inbounds nuw %struct.Var, ptr %22, i32 0, i32 2
  %24 = load i16, ptr %23, align 8
  %25 = sext i16 %24 to i32
  %26 = icmp slt i32 %25, 0
  br i1 %26, label %27, label %28

27:                                               ; preds = %21
  store i1 true, ptr %3, align 1
  store i32 1, ptr %8, align 4
  br label %50

28:                                               ; preds = %21
  %29 = load ptr, ptr %4, align 8
  %30 = load ptr, ptr %7, align 8
  %31 = getelementptr inbounds nuw %struct.Var, ptr %30, i32 0, i32 1
  %32 = load i32, ptr %31, align 4
  %33 = call ptr @find_base_rel(ptr noundef %29, i32 noundef %32)
  store ptr %33, ptr %6, align 8
  %34 = load ptr, ptr %7, align 8
  %35 = getelementptr inbounds nuw %struct.Var, ptr %34, i32 0, i32 2
  %36 = load i16, ptr %35, align 8
  %37 = sext i16 %36 to i32
  %38 = icmp sgt i32 %37, 0
  br i1 %38, label %39, label %49

39:                                               ; preds = %28
  %40 = load ptr, ptr %7, align 8
  %41 = getelementptr inbounds nuw %struct.Var, ptr %40, i32 0, i32 2
  %42 = load i16, ptr %41, align 8
  %43 = sext i16 %42 to i32
  %44 = load ptr, ptr %6, align 8
  %45 = getelementptr inbounds nuw %struct.RelOptInfo, ptr %44, i32 0, i32 24
  %46 = load ptr, ptr %45, align 8
  %47 = call zeroext i1 @bms_is_member(i32 noundef %43, ptr noundef %46)
  br i1 %47, label %48, label %49

48:                                               ; preds = %39
  store i1 true, ptr %3, align 1
  store i32 1, ptr %8, align 4
  br label %50

49:                                               ; preds = %39, %28
  store i1 false, ptr %3, align 1
  store i32 1, ptr %8, align 4
  br label %50

50:                                               ; preds = %49, %48, %27, %20, %13
  call void @llvm.lifetime.end.p0(i64 8, ptr %7) #6
  call void @llvm.lifetime.end.p0(i64 8, ptr %6) #6
  %51 = load i1, ptr %3, align 1
  ret i1 %51
}

; Function Attrs: nounwind uwtable
define dso_local zeroext i1 @restriction_is_always_true(ptr noundef %0, ptr noundef %1) #0 {
  %3 = alloca i1, align 1
  %4 = alloca ptr, align 8
  %5 = alloca ptr, align 8
  %6 = alloca ptr, align 8
  %7 = alloca i32, align 4
  %8 = alloca ptr, align 8
  %9 = alloca %struct.ForEachState, align 8
  %10 = alloca ptr, align 8
  store ptr %0, ptr %4, align 8
  store ptr %1, ptr %5, align 8
  %11 = load ptr, ptr %5, align 8
  %12 = getelementptr inbounds nuw %struct.RestrictInfo, ptr %11, i32 0, i32 1
  %13 = load ptr, ptr %12, align 8
  %14 = getelementptr inbounds nuw %struct.Node, ptr %13, i32 0, i32 0
  %15 = load i32, ptr %14, align 4
  %16 = icmp eq i32 %15, 52
  br i1 %16, label %17, label %33

17:                                               ; preds = %2
  call void @llvm.lifetime.start.p0(i64 8, ptr %6) #6
  %18 = load ptr, ptr %5, align 8
  %19 = getelementptr inbounds nuw %struct.RestrictInfo, ptr %18, i32 0, i32 1
  %20 = load ptr, ptr %19, align 8
  store ptr %20, ptr %6, align 8
  %21 = load ptr, ptr %6, align 8
  %22 = getelementptr inbounds nuw %struct.NullTest, ptr %21, i32 0, i32 2
  %23 = load i32, ptr %22, align 8
  %24 = icmp ne i32 %23, 1
  br i1 %24, label %25, label %26

25:                                               ; preds = %17
  store i1 false, ptr %3, align 1
  store i32 1, ptr %7, align 4
  br label %32

26:                                               ; preds = %17
  %27 = load ptr, ptr %4, align 8
  %28 = load ptr, ptr %6, align 8
  %29 = getelementptr inbounds nuw %struct.NullTest, ptr %28, i32 0, i32 1
  %30 = load ptr, ptr %29, align 8
  %31 = call zeroext i1 @expr_is_nonnullable(ptr noundef %27, ptr noundef %30)
  store i1 %31, ptr %3, align 1
  store i32 1, ptr %7, align 4
  br label %32

32:                                               ; preds = %26, %25
  call void @llvm.lifetime.end.p0(i64 8, ptr %6) #6
  br label %99

33:                                               ; preds = %2
  %34 = load ptr, ptr %5, align 8
  %35 = call zeroext i1 @restriction_is_or_clause(ptr noundef %34)
  br i1 %35, label %36, label %98

36:                                               ; preds = %33
  call void @llvm.lifetime.start.p0(i64 8, ptr %8) #6
  call void @llvm.lifetime.start.p0(i64 16, ptr %9) #6
  %37 = getelementptr inbounds nuw %struct.ForEachState, ptr %9, i32 0, i32 0
  %38 = load ptr, ptr %5, align 8
  %39 = getelementptr inbounds nuw %struct.RestrictInfo, ptr %38, i32 0, i32 17
  %40 = load ptr, ptr %39, align 8
  %41 = getelementptr inbounds nuw %struct.BoolExpr, ptr %40, i32 0, i32 2
  %42 = load ptr, ptr %41, align 8
  store ptr %42, ptr %37, align 8
  %43 = getelementptr inbounds nuw %struct.ForEachState, ptr %9, i32 0, i32 1
  store i32 0, ptr %43, align 8
  %44 = getelementptr i8, ptr %9, i64 12
  call void @llvm.memset.p0.i64(ptr align 4 %44, i8 0, i64 4, i1 false)
  br label %45

45:                                               ; preds = %88, %36
  %46 = getelementptr inbounds nuw %struct.ForEachState, ptr %9, i32 0, i32 0
  %47 = load ptr, ptr %46, align 8
  %48 = icmp ne ptr %47, null
  br i1 %48, label %49, label %66

49:                                               ; preds = %45
  %50 = getelementptr inbounds nuw %struct.ForEachState, ptr %9, i32 0, i32 1
  %51 = load i32, ptr %50, align 8
  %52 = getelementptr inbounds nuw %struct.ForEachState, ptr %9, i32 0, i32 0
  %53 = load ptr, ptr %52, align 8
  %54 = getelementptr inbounds nuw %struct.List, ptr %53, i32 0, i32 1
  %55 = load i32, ptr %54, align 4
  %56 = icmp slt i32 %51, %55
  br i1 %56, label %57, label %66

57:                                               ; preds = %49
  %58 = getelementptr inbounds nuw %struct.ForEachState, ptr %9, i32 0, i32 0
  %59 = load ptr, ptr %58, align 8
  %60 = getelementptr inbounds nuw %struct.List, ptr %59, i32 0, i32 3
  %61 = load ptr, ptr %60, align 8
  %62 = getelementptr inbounds nuw %struct.ForEachState, ptr %9, i32 0, i32 1
  %63 = load i32, ptr %62, align 8
  %64 = sext i32 %63 to i64
  %65 = getelementptr inbounds %union.ListCell, ptr %61, i64 %64
  store ptr %65, ptr %8, align 8
  br label %67

66:                                               ; preds = %49, %45
  store ptr null, ptr %8, align 8
  br label %67

67:                                               ; preds = %66, %57
  %68 = phi i32 [ 1, %57 ], [ 0, %66 ]
  %69 = icmp ne i32 %68, 0
  br i1 %69, label %71, label %70

70:                                               ; preds = %67
  store i32 2, ptr %7, align 4
  br label %92

71:                                               ; preds = %67
  call void @llvm.lifetime.start.p0(i64 8, ptr %10) #6
  %72 = load ptr, ptr %8, align 8
  %73 = load ptr, ptr %72, align 8
  store ptr %73, ptr %10, align 8
  %74 = load ptr, ptr %10, align 8
  %75 = getelementptr inbounds nuw %struct.Node, ptr %74, i32 0, i32 0
  %76 = load i32, ptr %75, align 4
  %77 = icmp eq i32 %76, 317
  br i1 %77, label %79, label %78

78:                                               ; preds = %71
  store i32 4, ptr %7, align 4
  br label %85

79:                                               ; preds = %71
  %80 = load ptr, ptr %4, align 8
  %81 = load ptr, ptr %10, align 8
  %82 = call zeroext i1 @restriction_is_always_true(ptr noundef %80, ptr noundef %81)
  br i1 %82, label %83, label %84

83:                                               ; preds = %79
  store i1 true, ptr %3, align 1
  store i32 1, ptr %7, align 4
  br label %85

84:                                               ; preds = %79
  store i32 0, ptr %7, align 4
  br label %85

85:                                               ; preds = %84, %83, %78
  call void @llvm.lifetime.end.p0(i64 8, ptr %10) #6
  %86 = load i32, ptr %7, align 4
  switch i32 %86, label %92 [
    i32 0, label %87
    i32 4, label %88
  ]

87:                                               ; preds = %85
  br label %88

88:                                               ; preds = %87, %85
  %89 = getelementptr inbounds nuw %struct.ForEachState, ptr %9, i32 0, i32 1
  %90 = load i32, ptr %89, align 8
  %91 = add i32 %90, 1
  store i32 %91, ptr %89, align 8
  br label %45, !llvm.loop !32

92:                                               ; preds = %85, %70
  call void @llvm.lifetime.end.p0(i64 16, ptr %9) #6
  %93 = load i32, ptr %7, align 4
  switch i32 %93, label %95 [
    i32 2, label %94
  ]

94:                                               ; preds = %92
  store i32 0, ptr %7, align 4
  br label %95

95:                                               ; preds = %94, %92
  call void @llvm.lifetime.end.p0(i64 8, ptr %8) #6
  %96 = load i32, ptr %7, align 4
  switch i32 %96, label %101 [
    i32 0, label %97
    i32 1, label %99
  ]

97:                                               ; preds = %95
  br label %98

98:                                               ; preds = %97, %33
  store i1 false, ptr %3, align 1
  br label %99

99:                                               ; preds = %98, %95, %32
  %100 = load i1, ptr %3, align 1
  ret i1 %100

101:                                              ; preds = %95
  unreachable
}